target datalayout = "e-m:e-p270:32:32-p271:32:32-p272:64:64-i64:64-f80:128-n8:16:32:64-S128"
target triple = "x86_64-pc-linux-gnu"

@.str = private unnamed_addr constant [5 x i8] c"%d%d\00", align 1
@.str.1 = private unnamed_addr constant [4 x i8] c"%d \00", align 1
@.str.2 = private unnamed_addr constant [4 x i8] c"%d\0A\00", align 1

; Function Attrs: noinline nounwind uwtable
define dso_local i32 @main() #0 {
  %1 = alloca i32, align 4
  %2 = alloca [11 x [11 x i32]], align 16
  %3 = alloca [11 x [11 x i32]], align 16
  %4 = alloca i32, align 4
  %5 = alloca i32, align 4
  %6 = alloca i32, align 4
  %7 = alloca i32, align 4
  %8 = alloca i32, align 4
  %9 = alloca i32, align 4
  store i32 0, i32* %1, align 4
  %10 = call i32 (i8*, ...) @__isoc99_scanf(i8* getelementptr inbounds ([5 x i8], [5 x i8]* @.str, i64 0, i64 0), i32* %4, i32* %5)
  store i32 0, i32* %8, align 4
  br label %11

11:                                               ; preds = %35, %0
  %12 = load i32, i32* %8, align 4
  %13 = icmp slt i32 %12, 11
  br i1 %13, label %14, label %38

14:                                               ; preds = %11
  store i32 0, i32* %7, align 4
  br label %15

15:                                               ; preds = %31, %14
  %16 = load i32, i32* %7, align 4
  %17 = icmp slt i32 %16, 11
  br i1 %17, label %18, label %34

18:                                               ; preds = %15
  %19 = load i32, i32* %8, align 4
  %20 = sext i32 %19 to i64
  %21 = getelementptr inbounds [11 x [11 x i32]], [11 x [11 x i32]]* %2, i64 0, i64 %20
  %22 = load i32, i32* %7, align 4
  %23 = sext i32 %22 to i64
  %24 = getelementptr inbounds [11 x i32], [11 x i32]* %21, i64 0, i64 %23
  store i32 0, i32* %24, align 4
  %25 = load i32, i32* %8, align 4
  %26 = sext i32 %25 to i64
  %27 = getelementptr inbounds [11 x [11 x i32]], [11 x [11 x i32]]* %3, i64 0, i64 %26
  %28 = load i32, i32* %7, align 4
  %29 = sext i32 %28 to i64
  %30 = getelementptr inbounds [11 x i32], [11 x i32]* %27, i64 0, i64 %29
  store i32 0, i32* %30, align 4
  br label %31

31:                                               ; preds = %18
  %32 = load i32, i32* %7, align 4
  %33 = add nsw i32 %32, 1
  store i32 %33, i32* %7, align 4
  br label %15

34:                                               ; preds = %15
  br label %35

35:                                               ; preds = %34
  %36 = load i32, i32* %8, align 4
  %37 = add nsw i32 %36, 1
  store i32 %37, i32* %8, align 4
  br label %11

38:                                               ; preds = %11
  %39 = load i32, i32* %4, align 4
  %40 = getelementptr inbounds [11 x [11 x i32]], [11 x [11 x i32]]* %2, i64 0, i64 5
  %41 = getelementptr inbounds [11 x i32], [11 x i32]* %40, i64 0, i64 5
  store i32 %39, i32* %41, align 4
  store i32 1, i32* %9, align 4
  br label %42

42:                                               ; preds = %233, %38
  %43 = load i32, i32* %9, align 4
  %44 = load i32, i32* %5, align 4
  %45 = icmp sle i32 %43, %44
  br i1 %45, label %46, label %236

46:                                               ; preds = %42
  %47 = load i32, i32* %9, align 4
  %48 = sub nsw i32 5, %47
  store i32 %48, i32* %8, align 4
  br label %49

49:                                               ; preds = %178, %46
  %50 = load i32, i32* %8, align 4
  %51 = load i32, i32* %9, align 4
  %52 = add nsw i32 5, %51
  %53 = icmp sle i32 %50, %52
  br i1 %53, label %54, label %181

54:                                               ; preds = %49
  %55 = load i32, i32* %9, align 4
  %56 = sub nsw i32 5, %55
  store i32 %56, i32* %7, align 4
  br label %57

57:                                               ; preds = %174, %54
  %58 = load i32, i32* %7, align 4
  %59 = load i32, i32* %9, align 4
  %60 = add nsw i32 5, %59
  %61 = icmp sle i32 %58, %60
  br i1 %61, label %62, label %177

62:                                               ; preds = %57
  %63 = load i32, i32* %8, align 4
  %64 = sext i32 %63 to i64
  %65 = getelementptr inbounds [11 x [11 x i32]], [11 x [11 x i32]]* %3, i64 0, i64 %64
  %66 = load i32, i32* %7, align 4
  %67 = sext i32 %66 to i64
  %68 = getelementptr inbounds [11 x i32], [11 x i32]* %65, i64 0, i64 %67
  %69 = load i32, i32* %68, align 4
  %70 = load i32, i32* %8, align 4
  %71 = sub nsw i32 %70, 1
  %72 = sext i32 %71 to i64
  %73 = getelementptr inbounds [11 x [11 x i32]], [11 x [11 x i32]]* %2, i64 0, i64 %72
  %74 = load i32, i32* %7, align 4
  %75 = sext i32 %74 to i64
  %76 = getelementptr inbounds [11 x i32], [11 x i32]* %73, i64 0, i64 %75
  %77 = load i32, i32* %76, align 4
  %78 = add nsw i32 %69, %77
  %79 = load i32, i32* %8, align 4
  %80 = sub nsw i32 %79, 1
  %81 = sext i32 %80 to i64
  %82 = getelementptr inbounds [11 x [11 x i32]], [11 x [11 x i32]]* %2, i64 0, i64 %81
  %83 = load i32, i32* %7, align 4
  %84 = sub nsw i32 %83, 1
  %85 = sext i32 %84 to i64
  %86 = getelementptr inbounds [11 x i32], [11 x i32]* %82, i64 0, i64 %85
  %87 = load i32, i32* %86, align 4
  %88 = add nsw i32 %78, %87
  %89 = load i32, i32* %8, align 4
  %90 = sub nsw i32 %89, 1
  %91 = sext i32 %90 to i64
  %92 = getelementptr inbounds [11 x [11 x i32]], [11 x [11 x i32]]* %2, i64 0, i64 %91
  %93 = load i32, i32* %7, align 4
  %94 = add nsw i32 %93, 1
  %95 = sext i32 %94 to i64
  %96 = getelementptr inbounds [11 x i32], [11 x i32]* %92, i64 0, i64 %95
  %97 = load i32, i32* %96, align 4
  %98 = add nsw i32 %88, %97
  %99 = load i32, i32* %8, align 4
  %100 = add nsw i32 %99, 1
  %101 = sext i32 %100 to i64
  %102 = getelementptr inbounds [11 x [11 x i32]], [11 x [11 x i32]]* %2, i64 0, i64 %101
  %103 = load i32, i32* %7, align 4
  %104 = sext i32 %103 to i64
  %105 = getelementptr inbounds [11 x i32], [11 x i32]* %102, i64 0, i64 %104
  %106 = load i32, i32* %105, align 4
  %107 = add nsw i32 %98, %106
  %108 = load i32, i32* %8, align 4
  %109 = add nsw i32 %108, 1
  %110 = sext i32 %109 to i64
  %111 = getelementptr inbounds [11 x [11 x i32]], [11 x [11 x i32]]* %2, i64 0, i64 %110
  %112 = load i32, i32* %7, align 4
  %113 = sub nsw i32 %112, 1
  %114 = sext i32 %113 to i64
  %115 = getelementptr inbounds [11 x i32], [11 x i32]* %111, i64 0, i64 %114
  %116 = load i32, i32* %115, align 4
  %117 = add nsw i32 %107, %116
  %118 = load i32, i32* %8, align 4
  %119 = add nsw i32 %118, 1
  %120 = sext i32 %119 to i64
  %121 = getelementptr inbounds [11 x [11 x i32]], [11 x [11 x i32]]* %2, i64 0, i64 %120
  %122 = load i32, i32* %7, align 4
  %123 = add nsw i32 %122, 1
  %124 = sext i32 %123 to i64
  %125 = getelementptr inbounds [11 x i32], [11 x i32]* %121, i64 0, i64 %124
  %126 = load i32, i32* %125, align 4
  %127 = add nsw i32 %117, %126
  %128 = load i32, i32* %8, align 4
  %129 = sext i32 %128 to i64
  %130 = getelementptr inbounds [11 x [11 x i32]], [11 x [11 x i32]]* %2, i64 0, i64 %129
  %131 = load i32, i32* %7, align 4
  %132 = sub nsw i32 %131, 1
  %133 = sext i32 %132 to i64
  %134 = getelementptr inbounds [11 x i32], [11 x i32]* %130, i64 0, i64 %133
  %135 = load i32, i32* %134, align 4
  %136 = add nsw i32 %127, %135
  %137 = load i32, i32* %8, align 4
  %138 = sext i32 %137 to i64
  %139 = getelementptr inbounds [11 x [11 x i32]], [11 x [11 x i32]]* %2, i64 0, i64 %138
  %140 = load i32, i32* %7, align 4
  %141 = add nsw i32 %140, 1
  %142 = sext i32 %141 to i64
  %143 = getelementptr inbounds [11 x i32], [11 x i32]* %139, i64 0, i64 %142
  %144 = load i32, i32* %143, align 4
  %145 = add nsw i32 %136, %144
  %146 = load i32, i32* %8, align 4
  %147 = sext i32 %146 to i64
  %148 = getelementptr inbounds [11 x [11 x i32]], [11 x [11 x i32]]* %3, i64 0, i64 %147
  %149 = load i32, i32* %7, align 4
  %150 = sext i32 %149 to i64
  %151 = getelementptr inbounds [11 x i32], [11 x i32]* %148, i64 0, i64 %150
  store i32 %145, i32* %151, align 4
  %152 = load i32, i32* %8, align 4
  %153 = sext i32 %152 to i64
  %154 = getelementptr inbounds [11 x [11 x i32]], [11 x [11 x i32]]* %3, i64 0, i64 %153
  %155 = load i32, i32* %7, align 4
  %156 = sext i32 %155 to i64
  %157 = getelementptr inbounds [11 x i32], [11 x i32]* %154, i64 0, i64 %156
  %158 = load i32, i32* %157, align 4
  %159 = load i32, i32* %8, align 4
  %160 = sext i32 %159 to i64
  %161 = getelementptr inbounds [11 x [11 x i32]], [11 x [11 x i32]]* %2, i64 0, i64 %160
  %162 = load i32, i32* %7, align 4
  %163 = sext i32 %162 to i64
  %164 = getelementptr inbounds [11 x i32], [11 x i32]* %161, i64 0, i64 %163
  %165 = load i32, i32* %164, align 4
  %166 = mul nsw i32 2, %165
  %167 = add nsw i32 %158, %166
  %168 = load i32, i32* %8, align 4
  %169 = sext i32 %168 to i64
  %170 = getelementptr inbounds [11 x [11 x i32]], [11 x [11 x i32]]* %3, i64 0, i64 %169
  %171 = load i32, i32* %7, align 4
  %172 = sext i32 %171 to i64
  %173 = getelementptr inbounds [11 x i32], [11 x i32]* %170, i64 0, i64 %172
  store i32 %167, i32* %173, align 4
  br label %174

174:                                              ; preds = %62
  %175 = load i32, i32* %7, align 4
  %176 = add nsw i32 %175, 1
  store i32 %176, i32* %7, align 4
  br label %57

177:                                              ; preds = %57
  br label %178

178:                                              ; preds = %177
  %179 = load i32, i32* %8, align 4
  %180 = add nsw i32 %179, 1
  store i32 %180, i32* %8, align 4
  br label %49

181:                                              ; preds = %49
  store i32 0, i32* %8, align 4
  br label %182

182:                                              ; preds = %207, %181
  %183 = load i32, i32* %8, align 4
  %184 = icmp slt i32 %183, 11
  br i1 %184, label %185, label %210

185:                                              ; preds = %182
  store i32 0, i32* %7, align 4
  br label %186

186:                                              ; preds = %203, %185
  %187 = load i32, i32* %7, align 4
  %188 = icmp slt i32 %187, 11
  br i1 %188, label %189, label %206

189:                                              ; preds = %186
  %190 = load i32, i32* %8, align 4
  %191 = sext i32 %190 to i64
  %192 = getelementptr inbounds [11 x [11 x i32]], [11 x [11 x i32]]* %3, i64 0, i64 %191
  %193 = load i32, i32* %7, align 4
  %194 = sext i32 %193 to i64
  %195 = getelementptr inbounds [11 x i32], [11 x i32]* %192, i64 0, i64 %194
  %196 = load i32, i32* %195, align 4
  %197 = load i32, i32* %8, align 4
  %198 = sext i32 %197 to i64
  %199 = getelementptr inbounds [11 x [11 x i32]], [11 x [11 x i32]]* %2, i64 0, i64 %198
  %200 = load i32, i32* %7, align 4
  %201 = sext i32 %200 to i64
  %202 = getelementptr inbounds [11 x i32], [11 x i32]* %199, i64 0, i64 %201
  store i32 %196, i32* %202, align 4
  br label %203

203:                                              ; preds = %189
  %204 = load i32, i32* %7, align 4
  %205 = add nsw i32 %204, 1
  store i32 %205, i32* %7, align 4
  br label %186

206:                                              ; preds = %186
  br label %207

207:                                              ; preds = %206
  %208 = load i32, i32* %8, align 4
  %209 = add nsw i32 %208, 1
  store i32 %209, i32* %8, align 4
  br label %182

210:                                              ; preds = %182
  store i32 0, i32* %8, align 4
  br label %211

211:                                              ; preds = %229, %210
  %212 = load i32, i32* %8, align 4
  %213 = icmp slt i32 %212, 11
  br i1 %213, label %214, label %232

214:                                              ; preds = %211
  store i32 0, i32* %7, align 4
  br label %215

215:                                              ; preds = %225, %214
  %216 = load i32, i32* %7, align 4
  %217 = icmp slt i32 %216, 11
  br i1 %217, label %218, label %228

218:                                              ; preds = %215
  %219 = load i32, i32* %8, align 4
  %220 = sext i32 %219 to i64
  %221 = getelementptr inbounds [11 x [11 x i32]], [11 x [11 x i32]]* %3, i64 0, i64 %220
  %222 = load i32, i32* %7, align 4
  %223 = sext i32 %222 to i64
  %224 = getelementptr inbounds [11 x i32], [11 x i32]* %221, i64 0, i64 %223
  store i32 0, i32* %224, align 4
  br label %225

225:                                              ; preds = %218
  %226 = load i32, i32* %7, align 4
  %227 = add nsw i32 %226, 1
  store i32 %227, i32* %7, align 4
  br label %215

228:                                              ; preds = %215
  br label %229

229:                                              ; preds = %228
  %230 = load i32, i32* %8, align 4
  %231 = add nsw i32 %230, 1
  store i32 %231, i32* %8, align 4
  br label %211

232:                                              ; preds = %211
  br label %233

233:                                              ; preds = %232
  %234 = load i32, i32* %9, align 4
  %235 = add nsw i32 %234, 1
  store i32 %235, i32* %9, align 4
  br label %42

236:                                              ; preds = %42
  store i32 1, i32* %8, align 4
  br label %237

237:                                              ; preds = %263, %236
  %238 = load i32, i32* %8, align 4
  %239 = icmp slt i32 %238, 10
  br i1 %239, label %240, label %266

240:                                              ; preds = %237
  store i32 1, i32* %7, align 4
  br label %241

241:                                              ; preds = %253, %240
  %242 = load i32, i32* %7, align 4
  %243 = icmp slt i32 %242, 9
  br i1 %243, label %244, label %256

244:                                              ; preds = %241
  %245 = load i32, i32* %8, align 4
  %246 = sext i32 %245 to i64
  %247 = getelementptr inbounds [11 x [11 x i32]], [11 x [11 x i32]]* %2, i64 0, i64 %246
  %248 = load i32, i32* %7, align 4
  %249 = sext i32 %248 to i64
  %250 = getelementptr inbounds [11 x i32], [11 x i32]* %247, i64 0, i64 %249
  %251 = load i32, i32* %250, align 4
  %252 = call i32 (i8*, ...) @printf(i8* getelementptr inbounds ([4 x i8], [4 x i8]* @.str.1, i64 0, i64 0), i32 %251)
  br label %253

253:                                              ; preds = %244
  %254 = load i32, i32* %7, align 4
  %255 = add nsw i32 %254, 1
  store i32 %255, i32* %7, align 4
  br label %241

256:                                              ; preds = %241
  %257 = load i32, i32* %8, align 4
  %258 = sext i32 %257 to i64
  %259 = getelementptr inbounds [11 x [11 x i32]], [11 x [11 x i32]]* %2, i64 0, i64 %258
  %260 = getelementptr inbounds [11 x i32], [11 x i32]* %259, i64 0, i64 9
  %261 = load i32, i32* %260, align 4
  %262 = call i32 (i8*, ...) @printf(i8* getelementptr inbounds ([4 x i8], [4 x i8]* @.str.2, i64 0, i64 0), i32 %261)
  br label %263

263:                                              ; preds = %256
  %264 = load i32, i32* %8, align 4
  %265 = add nsw i32 %264, 1
  store i32 %265, i32* %8, align 4
  br label %237

266:                                              ; preds = %237
  ret i32 0
}